(dp0
S'ROMFS_FILES'
p1
(lp2
(S'hwdef.dat'
p3
S'/home/marc/ardup_ste/ardupilot/build/Pixhawk1/hw.dat'
p4
tp5
a(S'io_firmware.bin'
p6
S'Tools/IO_Firmware/iofirmware_lowpolh.bin'
p7
tp8
a(S'bootloader.bin'
p9
S'/home/marc/ardup_ste/ardupilot/Tools/bootloaders/Pixhawk1_bl.bin'
p10
tp11
asS'HAL_NUM_CAN_IFACES'
p12
S'2'
p13
sS'CPU_FLAGS'
p14
(lp15
S'-mcpu=cortex-m4'
p16
aS'-mfpu=fpv4-sp-d16'
p17
aS'-mfloat-abi=hard'
p18
aS'-DARM_MATH_CM4'
p19
aS'-u_printf_float'
p20
asS'MAIN_STACK'
p21
S'0x600'
p22
sS'APJ_BOARD_TYPE'
p23
S'STM32F427xx'
p24
sS'IOMCU_FW'
p25
I0
sS'USBID'
p26
S'0x1209/0x5741'
p27
sS'BOARD_FLASH_SIZE'
p28
I2048
sS'APJ_BOARD_ID'
p29
S'9'
p30
sS'CORTEX'
p31
S'cortex-m4'
p32
sS'FLASH_TOTAL'
p33
I2080768
sS'FLASH_RESERVE_START_KB'
p34
S'16'
p35
sS'CHIBIOS_BUILD_FLAGS'
p36
S'USE_FATFS=yes MCU=cortex-m4 ENV_UDEFS=-DCHPRINTF_USE_FLOAT=1 CHIBIOS_PLATFORM_MK=os/hal/ports/STM32/STM32F4xx/platform.mk CHIBIOS_STARTUP_MK=os/common/startup/ARMCMx/compilers/GCC/mk/startup_stm32f4xx.mk'
p37
sS'WITH_FATFS'
p38
S'1'
p39
sS'PERIPH_FW'
p40
I0
sS'PROCESS_STACK'
p41
S'0x1C00'
p42
s.